; Function Attrs: mustprogress nofree norecurse nosync nounwind willreturn memory(read, inaccessiblemem: none) uwtable
define hidden noundef i32 @_ZNK11state_graph8get_sizeEv(ptr noundef nonnull readonly align 8 captures(none) dereferenceable(152) %0) local_unnamed_addr #8 align 2 {
  %2 = getelementptr inbounds nuw i8, ptr %0, i64 40
  %3 = load ptr, ptr %2, align 8, !tbaa !3
  %4 = icmp eq ptr %3, null
  br i1 %4, label %_ZNK16basic_union_find12get_num_varsEv.exit, label %5

5:                                                ; preds = %1
  %6 = getelementptr inbounds i8, ptr %3, i64 -4
  %7 = load i32, ptr %6, align 4, !tbaa !9
  br label %_ZNK16basic_union_find12get_num_varsEv.exit

_ZNK16basic_union_find12get_num_varsEv.exit:      ; preds = %1, %5
  %.0.i.i = phi i32 [ %7, %5 ], [ 0, %1 ]
  ret i32 %.0.i.i
}